; Function Attrs: null_pointer_is_valid sspstrong uwtable
define internal void @bssgp_create_bss_pfc_nack(ptr noundef %0, ptr noundef %1, ptr noundef initializes((384, 388)) %2, i32 noundef %3, i32 noundef %4) #1 {
  %6 = getelementptr inbounds nuw i8, ptr %2, i64 384
  store i32 0, ptr %6, align 8
  %7 = icmp sgt i32 %4, 0
  br i1 %7, label %8, label %14

8:                                                ; preds = %5
  %9 = tail call zeroext i16 @elem_telv(ptr noundef %0, ptr noundef %1, ptr noundef %2, i8 noundef zeroext 31, i32 noundef 3, i32 noundef 68, i32 noundef %3, i32 noundef %4, ptr noundef null)
  %.not = icmp eq i16 %9, 0
  br i1 %.not, label %14, label %10

10:                                               ; preds = %8
  %11 = zext i16 %9 to i32
  %12 = add i32 %3, %11
  %13 = sub nsw i32 %4, %11
  br label %17

14:                                               ; preds = %8, %5
  %15 = tail call ptr @get_gsm_a_msg_string(i32 noundef 3, i32 noundef 68)
  %16 = tail call ptr (ptr, ptr, ptr, ptr, i32, i32, ptr, ...) @proto_tree_add_expert_format(ptr noundef %1, ptr noundef %2, ptr noundef nonnull @ei_bssgp_missing_mandatory_element, ptr noundef %0, i32 noundef %3, i32 noundef 0, ptr noundef nonnull @.str.6, i32 noundef 31, ptr noundef %15, ptr noundef nonnull @.str.7)
  br label %17

17:                                               ; preds = %14, %10
  %.052 = phi i32 [ %12, %10 ], [ %3, %14 ]
  %.0 = phi i32 [ %13, %10 ], [ %4, %14 ]
  %18 = icmp sgt i32 %.0, 0
  br i1 %18, label %19, label %25

19:                                               ; preds = %17
  %20 = tail call zeroext i16 @elem_telv(ptr noundef %0, ptr noundef %1, ptr noundef %2, i8 noundef zeroext 40, i32 noundef 5, i32 noundef 56, i32 noundef %.052, i32 noundef %.0, ptr noundef null)
  %.not59 = icmp eq i16 %20, 0
  br i1 %.not59, label %25, label %21

21:                                               ; preds = %19
  %22 = zext i16 %20 to i32
  %23 = add i32 %.052, %22
  %24 = sub nsw i32 %.0, %22
  br label %28

25:                                               ; preds = %19, %17
  %26 = tail call ptr @get_gsm_a_msg_string(i32 noundef 5, i32 noundef 56)
  %27 = tail call ptr (ptr, ptr, ptr, ptr, i32, i32, ptr, ...) @proto_tree_add_expert_format(ptr noundef %1, ptr noundef %2, ptr noundef nonnull @ei_bssgp_missing_mandatory_element, ptr noundef %0, i32 noundef %.052, i32 noundef 0, ptr noundef nonnull @.str.6, i32 noundef 40, ptr noundef %26, ptr noundef nonnull @.str.7)
  br label %28

28:                                               ; preds = %25, %21
  %.153 = phi i32 [ %23, %21 ], [ %.052, %25 ]
  %.1 = phi i32 [ %24, %21 ], [ %.0, %25 ]
  %29 = icmp sgt i32 %.1, 0
  br i1 %29, label %30, label %36

30:                                               ; preds = %28
  %31 = tail call zeroext i16 @elem_telv(ptr noundef %0, ptr noundef %1, ptr noundef %2, i8 noundef zeroext 7, i32 noundef 13, i32 noundef 7, i32 noundef %.153, i32 noundef %.1, ptr noundef null)
  %.not60 = icmp eq i16 %31, 0
  br i1 %.not60, label %36, label %32

32:                                               ; preds = %30
  %33 = zext i16 %31 to i32
  %34 = add i32 %.153, %33
  %35 = sub nsw i32 %.1, %33
  br label %39

36:                                               ; preds = %30, %28
  %37 = tail call ptr @get_gsm_a_msg_string(i32 noundef 13, i32 noundef 7)
  %38 = tail call ptr (ptr, ptr, ptr, ptr, i32, i32, ptr, ...) @proto_tree_add_expert_format(ptr noundef %1, ptr noundef %2, ptr noundef nonnull @ei_bssgp_missing_mandatory_element, ptr noundef %0, i32 noundef %.153, i32 noundef 0, ptr noundef nonnull @.str.6, i32 noundef 7, ptr noundef %37, ptr noundef nonnull @.str.7)
  br label %39

39:                                               ; preds = %36, %32
  %.254 = phi i32 [ %34, %32 ], [ %.153, %36 ]
  %.2 = phi i32 [ %35, %32 ], [ %.1, %36 ]
  %.not61 = icmp eq i32 %.2, 0
  br i1 %.not61, label %42, label %40

40:                                               ; preds = %39
  %41 = tail call ptr @proto_tree_add_expert(ptr noundef %1, ptr noundef %2, ptr noundef nonnull @ei_bssgp_extraneous_data, ptr noundef %0, i32 noundef %.254, i32 noundef %.2)
  br label %42

42:                                               ; preds = %40, %39
  ret void
}